; Function Attrs: mustprogress uwtable
define void @_ZN6icu_7718NullTransliteratorC2Ev(ptr noundef nonnull align 8 dereferenceable(84) %0) unnamed_addr #1 align 2 personality ptr @__gxx_personality_v0 {
  %2 = alloca %"class.icu_77::UnicodeString", align 8
  %3 = alloca %"class.icu_77::ConstChar16Ptr", align 8
  call void @llvm.lifetime.start.p0(i64 64, ptr nonnull %2) #7
  store ptr @.str, ptr %3, align 8, !tbaa !3
  invoke void @_ZN6icu_7713UnicodeStringC1EaNS_14ConstChar16PtrEi(ptr noundef nonnull align 8 dereferenceable(64) %2, i8 noundef signext 1, ptr noundef nonnull %3, i32 noundef -1)
          to label %4 unwind label %7

4:                                                ; preds = %1
  invoke void @_ZN6icu_7714TransliteratorC2ERKNS_13UnicodeStringEPNS_13UnicodeFilterE(ptr noundef nonnull align 8 dereferenceable(84) %0, ptr noundef nonnull align 8 dereferenceable(64) %2, ptr noundef null)
          to label %5 unwind label %9

5:                                                ; preds = %4
  call void @_ZN6icu_7713UnicodeStringD1Ev(ptr noundef nonnull align 8 dereferenceable(64) %2) #7
  %6 = load ptr, ptr %3, align 8, !tbaa !3
  call void asm sideeffect "", "rm,~{memory},~{dirflag},~{fpsr},~{flags}"(ptr %6) #7, !srcloc !9
  call void @llvm.lifetime.end.p0(i64 64, ptr nonnull %2) #7
  store ptr getelementptr inbounds nuw inrange(-16, 136) (i8, ptr @_ZTVN6icu_7718NullTransliteratorE, i64 16), ptr %0, align 8, !tbaa !10
  ret void

7:                                                ; preds = %1
  %8 = landingpad { ptr, i32 }
          cleanup
  br label %11

9:                                                ; preds = %4
  %10 = landingpad { ptr, i32 }
          cleanup
  call void @_ZN6icu_7713UnicodeStringD1Ev(ptr noundef nonnull align 8 dereferenceable(64) %2) #7
  br label %11

11:                                               ; preds = %9, %7
  %.pn = phi { ptr, i32 } [ %10, %9 ], [ %8, %7 ]
  %12 = load ptr, ptr %3, align 8, !tbaa !3
  call void asm sideeffect "", "rm,~{memory},~{dirflag},~{fpsr},~{flags}"(ptr %12) #7, !srcloc !9
  call void @llvm.lifetime.end.p0(i64 64, ptr nonnull %2) #7
  resume { ptr, i32 } %.pn
}